Certificate:
    Data:
        Version: 3 (0x2)
        Serial Number:
            b8:f8:e3:4c:30:a4:8e:81:65:4a:b9:30:90:b3:e0:8b
        Signature Algorithm: sha256WithRSAEncryption
        Issuer: CN=Intermediate CA
        Validity
            Not Before: Dec  7 16:38:57 2020 GMT
            Not After : Mar 12 16:38:57 2023 GMT
        Subject: CN=localhost
        Subject Public Key Info:
            Public Key Algorithm: rsaEncryption
                RSA Public-Key: (2048 bit)
                Modulus:
                    00:c0:71:1f:d4:4b:ef:07:53:e3:42:8b:6e:40:5b:
                    81:5d:b7:34:6a:29:6d:a7:38:76:7d:bd:08:bc:a6:
                    d5:17:0e:7c:d2:ab:9e:66:43:a5:6c:bd:5e:95:f2:
                    ad:e8:ff:08:8c:a1:7d:07:06:2a:7f:f0:54:f3:2e:
                    b5:76:f5:db:96:9e:04:f1:81:03:4e:b2:7d:ee:9d:
                    16:26:4e:e8:b1:b3:29:5f:88:e8:fb:6e:3e:11:ee:
                    57:2a:e4:b3:ee:2e:7e:72:8c:f7:06:22:06:9c:76:
                    79:e1:1a:c0:c0:5b:6b:a3:5a:c0:46:fd:83:a8:8f:
                    e5:72:c8:1a:2c:df:bb:fe:55:5a:cc:00:cf:73:b4:
                    16:41:e0:02:25:f9:25:f1:b2:69:6b:f0:a7:de:7c:
                    1f:2c:ba:aa:69:12:b9:80:a5:6b:59:b3:e5:7a:37:
                    8c:d8:fd:2a:0b:25:81:4c:b9:cd:f1:1c:64:46:db:
                    5e:bd:4a:ca:85:14:db:a8:c6:d5:e6:80:0d:76:a2:
                    90:ff:f6:46:d0:13:63:71:b0:05:08:ce:95:a8:78:
                    ae:c3:d6:64:cf:da:b4:9a:01:96:25:67:db:aa:e1:
                    d1:c1:22:e0:58:26:a1:85:9c:66:95:c2:3b:02:41:
                    0d:d1:cd:98:13:12:98:37:96:2d:f5:7f:b7:0e:4b:
                    c1:67
                Exponent: 65537 (0x10001)
        X509v3 extensions:
            X509v3 Basic Constraints: 
                CA:FALSE
            X509v3 Subject Key Identifier: 
                89:4A:C8:EC:79:76:15:01:C1:0E:6D:8F:39:3B:0E:BB:CB:74:80:E7
            X509v3 Authority Key Identifier: 
                keyid:78:B1:0B:7D:26:4D:A5:A8:70:9F:DC:9D:57:08:D7:D9:E7:12:B1:0B
                DirName:/CN=Root CA
                serial:DC:B2:78:F0:81:CB:54:A2:8D:17:CD:19:E3:6C:C9:AA

            X509v3 Extended Key Usage: 
                TLS Web Server Authentication, TLS Web Client Authentication
            X509v3 Key Usage: 
                Digital Signature, Key Encipherment
            X509v3 Subject Alternative Name: 
                DNS:localhost, DNS:127.0.0.1
    Signature Algorithm: sha256WithRSAEncryption
         9c:79:dc:3b:af:50:dc:d4:a4:2c:6e:a4:7e:e0:3e:ce:c3:c8:
         79:aa:55:a2:ea:59:01:ec:9f:40:ce:b5:71:c7:4a:3c:47:71:
         62:75:cb:a2:6b:41:23:87:a2:6d:1a:58:a1:f2:4c:94:fc:ff:
         03:93:f6:d1:f4:3c:e3:da:e4:79:72:c2:f6:d1:86:b6:47:0f:
         c7:fb:5b:0c:ef:cc:7b:51:09:09:1e:ba:25:94:01:8c:fa:71:
         bf:fd:87:fe:62:b1:01:b6:b7:bf:14:6d:f3:36:97:84:76:96:
         2b:c5:69:47:e9:af:a0:84:6d:b2:36:21:ae:f5:55:c8:f5:12:
         28:ab:df:2b:c8:15:31:c1:5d:a5:9b:0d:59:3d:5d:a6:3d:a9:
         b2:cc:ca:c3:a5:90:79:8a:b8:16:88:8c:06:31:9b:d0:94:b0:
         85:f9:3c:40:c8:41:f9:79:63:da:c3:04:a6:1a:8b:5b:b4:1e:
         8b:60:40:27:34:47:c8:b4:3b:f2:f9:80:f8:d2:43:d5:6a:29:
         5c:64:6c:ff:13:b3:80:1b:29:76:b5:16:42:e5:4c:f5:24:ec:
         1d:c2:d2:6f:61:bf:36:be:ae:02:a3:e8:84:36:ce:fa:93:12:
         56:e2:88:ba:dc:48:15:b8:91:35:83:14:ef:42:b1:9c:b7:45:
         41:a7:23:39
-----BEGIN CERTIFICATE-----
MIIDgDCCAmigAwIBAgIRALj440wwpI6BZUq5MJCz4IswDQYJKoZIhvcNAQELBQAw
GjEYMBYGA1UEAwwPSW50ZXJtZWRpYXRlIENBMB4XDTIwMTIwNzE2Mzg1N1oXDTIz
MDMxMjE2Mzg1N1owFDESMBAGA1UEAwwJbG9jYWxob3N0MIIBIjANBgkqhkiG9w0B
AQEFAAOCAQ8AMIIBCgKCAQEAwHEf1EvvB1PjQotuQFuBXbc0ailtpzh2fb0IvKbV
Fw580queZkOlbL1elfKt6P8IjKF9BwYqf/BU8y61dvXblp4E8YEDTrJ97p0WJk7o
sbMpX4jo+24+Ee5XKuSz7i5+coz3BiIGnHZ54RrAwFtro1rARv2DqI/lcsgaLN+7
/lVazADPc7QWQeACJfkl8bJpa/Cn3nwfLLqqaRK5gKVrWbPlejeM2P0qCyWBTLnN
8RxkRttevUrKhRTbqMbV5oANdqKQ//ZG0BNjcbAFCM6VqHiuw9Zkz9q0mgGWJWfb
quHRwSLgWCahhZxmlcI7AkEN0c2YExKYN5Yt9X+3DkvBZwIDAQABo4HGMIHDMAkG
A1UdEwQCMAAwHQYDVR0OBBYEFIlKyOx5dhUBwQ5tjzk7DrvLdIDnMEoGA1UdIwRD
MEGAFHixC30mTaWocJ/cnVcI19nnErELoRakFDASMRAwDgYDVQQDDAdSb290IENB
ghEA3LJ48IHLVKKNF80Z42zJqjAdBgNVHSUEFjAUBggrBgEFBQcDAQYIKwYBBQUH
AwIwCwYDVR0PBAQDAgWgMB8GA1UdEQQYMBaCCWxvY2FsaG9zdIIJMTI3LjAuMC4x
MA0GCSqGSIb3DQEBCwUAA4IBAQCcedw7r1Dc1KQsbqR+4D7Ow8h5qlWi6lkB7J9A
zrVxx0o8R3Fidcuia0Ejh6JtGlih8kyU/P8Dk/bR9Dzj2uR5csL20Ya2Rw/H+1sM
78x7UQkJHrollAGM+nG//Yf+YrEBtre/FG3zNpeEdpYrxWlH6a+ghG2yNiGu9VXI
9RIoq98ryBUxwV2lmw1ZPV2mPamyzMrDpZB5irgWiIwGMZvQlLCF+TxAyEH5eWPa
wwSmGotbtB6LYEAnNEfItDvy+YD40kPVailcZGz/E7OAGyl2tRZC5Uz1JOwdwtJv
Yb82vq4Co+iENs76kxJW4oi63EgVuJE1gxTvQrGct0VBpyM5
-----END CERTIFICATE-----
Certificate:
    Data:
        Version: 3 (0x2)
        Serial Number:
            dc:b2:78:f0:81:cb:54:a2:8d:17:cd:19:e3:6c:c9:aa
        Signature Algorithm: sha256WithRSAEncryption
        Issuer: CN=Root CA
        Validity
            Not Before: Dec  6 18:43:52 2020 GMT
            Not After : Mar 11 18:43:52 2023 GMT
        Subject: CN=Intermediate CA
        Subject Public Key Info:
            Public Key Algorithm: rsaEncryption
                RSA Public-Key: (2048 bit)
                Modulus:
                    00:d8:d0:87:01:cd:80:30:3d:50:ef:d8:b2:2b:8b:
                    3b:17:62:b6:60:ea:9c:be:fd:ed:27:fb:17:a1:db:
                    29:c4:7c:01:c6:f8:1f:9b:98:a7:ca:c1:7d:84:e6:
                    da:4c:cf:26:df:7d:c2:36:e1:55:37:8e:82:07:b0:
                    d8:c5:7e:c4:ab:32:eb:84:26:18:e8:6c:a6:57:78:
                    5a:a4:39:5e:51:68:58:af:b3:60:dc:2d:40:0e:7d:
                    4a:24:2d:ff:83:25:d0:59:bc:0c:94:3c:21:c8:1e:
                    88:b1:e4:83:49:70:a2:7b:d1:6c:1e:f0:6f:b4:5e:
                    49:57:5e:df:b5:ba:81:4f:17:6e:69:0f:cc:f5:8f:
                    99:89:28:b7:ce:e1:de:09:78:36:09:57:b9:56:32:
                    45:e8:64:f4:29:fa:ac:b5:56:d4:84:08:9d:bc:fd:
                    c1:7f:35:f1:70:89:6e:f6:cd:52:13:d4:f8:89:60:
                    84:ac:7c:f2:07:00:60:41:06:b7:04:2f:ef:c4:56:
                    75:4f:b1:72:d8:a1:cc:14:c7:62:fc:5d:23:45:23:
                    a9:53:4a:fd:97:0f:f6:dd:b3:27:3b:4a:39:80:5b:
                    bc:5a:4e:bc:9e:6c:ca:2f:ea:ad:f6:57:de:f9:7d:
                    3a:3f:a5:b2:fb:70:68:8f:aa:46:82:72:33:84:f8:
                    32:93
                Exponent: 65537 (0x10001)
        X509v3 extensions:
            X509v3 Basic Constraints: 
                CA:TRUE
            X509v3 Subject Key Identifier: 
                78:B1:0B:7D:26:4D:A5:A8:70:9F:DC:9D:57:08:D7:D9:E7:12:B1:0B
            X509v3 Authority Key Identifier: 
                keyid:7E:1F:40:D3:60:00:BB:45:81:62:3B:38:CF:F0:B9:7E:98:55:3E:9A
                DirName:/CN=Root CA
                serial:5E:F0:48:94:D7:DA:94:2C:3B:97:8D:D6:78:1F:27:27:3A:26:68:96

            X509v3 Key Usage: 
                Certificate Sign, CRL Sign
    Signature Algorithm: sha256WithRSAEncryption
         b9:1c:4e:a7:d3:68:c8:71:35:b4:fb:65:6f:68:0b:0a:c0:99:
         d5:0d:62:6f:26:5d:f0:41:05:d4:a9:64:e0:4d:56:cd:e5:01:
         33:ca:5b:fd:30:e7:f1:89:62:00:7b:1e:2f:03:eb:36:a4:bc:
         0d:2f:36:f4:70:68:7f:a4:ac:26:69:cf:5f:5c:32:fa:46:28:
         02:d5:52:3a:d5:e4:df:c6:d6:e4:aa:36:41:c8:30:09:c2:d5:
         c9:5e:5f:d7:31:37:7c:70:4b:00:69:ac:5e:87:f1:27:f7:f7:
         4b:9d:74:9f:3f:92:28:90:4e:5b:f3:98:d0:6c:9a:98:d6:84:
         48:a0:48:56:a5:43:c0:0b:f1:eb:68:b2:24:21:99:fa:78:90:
         f1:fb:1d:ef:55:b1:a7:89:5a:0e:c0:c3:66:75:45:19:83:e0:
         b9:78:54:31:f3:a6:dc:07:ca:1b:19:9e:90:5e:86:91:55:e1:
         b6:f9:5f:d0:18:87:4d:11:2a:8b:04:01:2a:bb:f3:d4:c5:a5:
         08:b0:95:8b:27:85:8a:1a:28:93:fa:3e:73:a3:d3:b5:87:d1:
         b2:58:28:99:95:d4:53:2a:53:e1:2f:f5:38:4b:05:f9:fa:de:
         4c:aa:25:41:f0:e7:65:01:ea:88:5f:77:e4:30:75:77:e4:60:
         e3:d2:1e:02
-----BEGIN CERTIFICATE-----
MIIDRDCCAiygAwIBAgIRANyyePCBy1SijRfNGeNsyaowDQYJKoZIhvcNAQELBQAw
EjEQMA4GA1UEAwwHUm9vdCBDQTAeFw0yMDEyMDYxODQzNTJaFw0yMzAzMTExODQz
NTJaMBoxGDAWBgNVBAMMD0ludGVybWVkaWF0ZSBDQTCCASIwDQYJKoZIhvcNAQEB
BQADggEPADCCAQoCggEBANjQhwHNgDA9UO/YsiuLOxditmDqnL797Sf7F6HbKcR8
Acb4H5uYp8rBfYTm2kzPJt99wjbhVTeOggew2MV+xKsy64QmGOhspld4WqQ5XlFo
WK+zYNwtQA59SiQt/4Ml0Fm8DJQ8IcgeiLHkg0lwonvRbB7wb7ReSVde37W6gU8X
bmkPzPWPmYkot87h3gl4NglXuVYyRehk9Cn6rLVW1IQInbz9wX818XCJbvbNUhPU
+IlghKx88gcAYEEGtwQv78RWdU+xctihzBTHYvxdI0UjqVNK/ZcP9t2zJztKOYBb
vFpOvJ5syi/qrfZX3vl9Oj+lsvtwaI+qRoJyM4T4MpMCAwEAAaOBjDCBiTAMBgNV
HRMEBTADAQH/MB0GA1UdDgQWBBR4sQt9Jk2lqHCf3J1XCNfZ5xKxCzBNBgNVHSME
RjBEgBR+H0DTYAC7RYFiOzjP8Ll+mFU+mqEWpBQwEjEQMA4GA1UEAwwHUm9vdCBD
QYIUXvBIlNfalCw7l43WeB8nJzomaJYwCwYDVR0PBAQDAgEGMA0GCSqGSIb3DQEB
CwUAA4IBAQC5HE6n02jIcTW0+2VvaAsKwJnVDWJvJl3wQQXUqWTgTVbN5QEzylv9
MOfxiWIAex4vA+s2pLwNLzb0cGh/pKwmac9fXDL6RigC1VI61eTfxtbkqjZByDAJ
wtXJXl/XMTd8cEsAaaxeh/En9/dLnXSfP5IokE5b85jQbJqY1oRIoEhWpUPAC/Hr
aLIkIZn6eJDx+x3vVbGniVoOwMNmdUUZg+C5eFQx86bcB8obGZ6QXoaRVeG2+V/Q
GIdNESqLBAEqu/PUxaUIsJWLJ4WKGiiT+j5zo9O1h9GyWCiZldRTKlPhL/U4SwX5
+t5MqiVB8OdlAeqIX3fkMHV35GDj0h4C
-----END CERTIFICATE-----
