Certificate:
    Data:
        Version: 3 (0x2)
        Serial Number:
            b8:f8:e3:4c:30:a4:8e:81:65:4a:b9:30:90:b3:e0:8b
        Signature Algorithm: sha256WithRSAEncryption
        Issuer: CN=Intermediate CA
        Validity
            Not Before: Dec  7 16:38:57 2020 GMT
            Not After : Mar 12 16:38:57 2023 GMT
        Subject: CN=localhost
        Subject Public Key Info:
            Public Key Algorithm: rsaEncryption
                RSA Public-Key: (2048 bit)
                Modulus:
                    00:c0:71:1f:d4:4b:ef:07:53:e3:42:8b:6e:40:5b:
                    81:5d:b7:34:6a:29:6d:a7:38:76:7d:bd:08:bc:a6:
                    d5:17:0e:7c:d2:ab:9e:66:43:a5:6c:bd:5e:95:f2:
                    ad:e8:ff:08:8c:a1:7d:07:06:2a:7f:f0:54:f3:2e:
                    b5:76:f5:db:96:9e:04:f1:81:03:4e:b2:7d:ee:9d:
                    16:26:4e:e8:b1:b3:29:5f:88:e8:fb:6e:3e:11:ee:
                    57:2a:e4:b3:ee:2e:7e:72:8c:f7:06:22:06:9c:76:
                    79:e1:1a:c0:c0:5b:6b:a3:5a:c0:46:fd:83:a8:8f:
                    e5:72:c8:1a:2c:df:bb:fe:55:5a:cc:00:cf:73:b4:
                    16:41:e0:02:25:f9:25:f1:b2:69:6b:f0:a7:de:7c:
                    1f:2c:ba:aa:69:12:b9:80:a5:6b:59:b3:e5:7a:37:
                    8c:d8:fd:2a:0b:25:81:4c:b9:cd:f1:1c:64:46:db:
                    5e:bd:4a:ca:85:14:db:a8:c6:d5:e6:80:0d:76:a2:
                    90:ff:f6:46:d0:13:63:71:b0:05:08:ce:95:a8:78:
                    ae:c3:d6:64:cf:da:b4:9a:01:96:25:67:db:aa:e1:
                    d1:c1:22:e0:58:26:a1:85:9c:66:95:c2:3b:02:41:
                    0d:d1:cd:98:13:12:98:37:96:2d:f5:7f:b7:0e:4b:
                    c1:67
                Exponent: 65537 (0x10001)
        X509v3 extensions:
            X509v3 Basic Constraints: 
                CA:FALSE
            X509v3 Subject Key Identifier: 
                89:4A:C8:EC:79:76:15:01:C1:0E:6D:8F:39:3B:0E:BB:CB:74:80:E7
            X509v3 Authority Key Identifier: 
                keyid:78:B1:0B:7D:26:4D:A5:A8:70:9F:DC:9D:57:08:D7:D9:E7:12:B1:0B
                DirName:/CN=Root CA
                serial:DC:B2:78:F0:81:CB:54:A2:8D:17:CD:19:E3:6C:C9:AA

            X509v3 Extended Key Usage: 
                TLS Web Server Authentication, TLS Web Client Authentication
            X509v3 Key Usage: 
                Digital Signature, Key Encipherment
            X509v3 Subject Alternative Name: 
                DNS:localhost, DNS:127.0.0.1
    Signature Algorithm: sha256WithRSAEncryption
         9c:79:dc:3b:af:50:dc:d4:a4:2c:6e:a4:7e:e0:3e:ce:c3:c8:
         79:aa:55:a2:ea:59:01:ec:9f:40:ce:b5:71:c7:4a:3c:47:71:
         62:75:cb:a2:6b:41:23:87:a2:6d:1a:58:a1:f2:4c:94:fc:ff:
         03:93:f6:d1:f4:3c:e3:da:e4:79:72:c2:f6:d1:86:b6:47:0f:
         c7:fb:5b:0c:ef:cc:7b:51:09:09:1e:ba:25:94:01:8c:fa:71:
         bf:fd:87:fe:62:b1:01:b6:b7:bf:14:6d:f3:36:97:84:76:96:
         2b:c5:69:47:e9:af:a0:84:6d:b2:36:21:ae:f5:55:c8:f5:12:
         28:ab:df:2b:c8:15:31:c1:5d:a5:9b:0d:59:3d:5d:a6:3d:a9:
         b2:cc:ca:c3:a5:90:79:8a:b8:16:88:8c:06:31:9b:d0:94:b0:
         85:f9:3c:40:c8:41:f9:79:63:da:c3:04:a6:1a:8b:5b:b4:1e:
         8b:60:40:27:34:47:c8:b4:3b:f2:f9:80:f8:d2:43:d5:6a:29:
         5c:64:6c:ff:13:b3:80:1b:29:76:b5:16:42:e5:4c:f5:24:ec:
         1d:c2:d2:6f:61:bf:36:be:ae:02:a3:e8:84:36:ce:fa:93:12:
         56:e2:88:ba:dc:48:15:b8:91:35:83:14:ef:42:b1:9c:b7:45:
         41:a7:23:39
-----BEGIN CERTIFICATE-----
MIIDgDCCAmigAwIBAgIRALj440wwpI6BZUq5MJCz4IswDQYJKoZIhvcNAQELBQAw
GjEYMBYGA1UEAwwPSW50ZXJtZWRpYXRlIENBMB4XDTIwMTIwNzE2Mzg1N1oXDTIz
MDMxMjE2Mzg1N1owFDESMBAGA1UEAwwJbG9jYWxob3N0MIIBIjANBgkqhkiG9w0B
AQEFAAOCAQ8AMIIBCgKCAQEAwHEf1EvvB1PjQotuQFuBXbc0ailtpzh2fb0IvKbV
Fw580queZkOlbL1elfKt6P8IjKF9BwYqf/BU8y61dvXblp4E8YEDTrJ97p0WJk7o
sbMpX4jo+24+Ee5XKuSz7i5+coz3BiIGnHZ54RrAwFtro1rARv2DqI/lcsgaLN+7
/lVazADPc7QWQeACJfkl8bJpa/Cn3nwfLLqqaRK5gKVrWbPlejeM2P0qCyWBTLnN
8RxkRttevUrKhRTbqMbV5oANdqKQ//ZG0BNjcbAFCM6VqHiuw9Zkz9q0mgGWJWfb
quHRwSLgWCahhZxmlcI7AkEN0c2YExKYN5Yt9X+3DkvBZwIDAQABo4HGMIHDMAkG
A1UdEwQCMAAwHQYDVR0OBBYEFIlKyOx5dhUBwQ5tjzk7DrvLdIDnMEoGA1UdIwRD
MEGAFHixC30mTaWocJ/cnVcI19nnErELoRakFDASMRAwDgYDVQQDDAdSb290IENB
ghEA3LJ48IHLVKKNF80Z42zJqjAdBgNVHSUEFjAUBggrBgEFBQcDAQYIKwYBBQUH
AwIwCwYDVR0PBAQDAgWgMB8GA1UdEQQYMBaCCWxvY2FsaG9zdIIJMTI3LjAuMC4x
MA0GCSqGSIb3DQEBCwUAA4IBAQCcedw7r1Dc1KQsbqR+4D7Ow8h5qlWi6lkB7J9A
zrVxx0o8R3Fidcuia0Ejh6JtGlih8kyU/P8Dk/bR9Dzj2uR5csL20Ya2Rw/H+1sM
78x7UQkJHrollAGM+nG//Yf+YrEBtre/FG3zNpeEdpYrxWlH6a+ghG2yNiGu9VXI
9RIoq98ryBUxwV2lmw1ZPV2mPamyzMrDpZB5irgWiIwGMZvQlLCF+TxAyEH5eWPa
wwSmGotbtB6LYEAnNEfItDvy+YD40kPVailcZGz/E7OAGyl2tRZC5Uz1JOwdwtJv
Yb82vq4Co+iENs76kxJW4oi63EgVuJE1gxTvQrGct0VBpyM5
-----END CERTIFICATE-----
